; ModuleID = 'source-C-CXX/27/466.c'
source_filename = "source-C-CXX/27/466.c"
target datalayout = "e-m:e-p270:32:32-p271:32:32-p272:64:64-i64:64-f80:128-n8:16:32:64-S128"
target triple = "x86_64-pc-linux-gnu"

@.str = private unnamed_addr constant [3 x i8] c"%d\00", align 1
@.str.1 = private unnamed_addr constant [4 x i8] c"%d,\00", align 1

; Function Attrs: nounwind sspstrong uwtable
define dso_local void @main() local_unnamed_addr #0 {
  %1 = alloca [3000 x i8], align 16
  %2 = getelementptr inbounds [3000 x i8], [3000 x i8]* %1, i64 0, i64 0
  call void @llvm.lifetime.start.p0i8(i64 3000, i8* nonnull %2) #5
  %3 = call i32 (i8*, ...) bitcast (i32 (...)* @gets to i32 (i8*, ...)*)(i8* nonnull %2) #5
  %4 = call i64 @strlen(i8* noundef nonnull %2) #6
  br label %5

5:                                                ; preds = %0, %23
  %6 = phi i64 [ 0, %0 ], [ %26, %23 ]
  %7 = phi i64 [ %4, %0 ], [ %27, %23 ]
  %8 = phi i32 [ 0, %0 ], [ %25, %23 ]
  %9 = phi i32 [ 0, %0 ], [ %24, %23 ]
  %10 = icmp eq i64 %7, %6
  br i1 %10, label %11, label %13

11:                                               ; preds = %5
  %12 = call i32 (i8*, ...) @printf(i8* nonnull dereferenceable(1) getelementptr inbounds ([3 x i8], [3 x i8]* @.str, i64 0, i64 0), i32 %9)
  br label %29

13:                                               ; preds = %5
  %14 = getelementptr inbounds [3000 x i8], [3000 x i8]* %1, i64 0, i64 %6
  %15 = load i8, i8* %14, align 1, !tbaa !5
  %16 = icmp eq i8 %15, 32
  br i1 %16, label %19, label %17

17:                                               ; preds = %13
  %18 = add nsw i32 %9, 1
  br label %23

19:                                               ; preds = %13
  %20 = icmp eq i32 %8, 1
  br i1 %20, label %21, label %23

21:                                               ; preds = %19
  %22 = call i32 (i8*, ...) @printf(i8* nonnull dereferenceable(1) getelementptr inbounds ([4 x i8], [4 x i8]* @.str.1, i64 0, i64 0), i32 %9)
  br label %23

23:                                               ; preds = %19, %21, %17
  %24 = phi i32 [ %18, %17 ], [ 0, %21 ], [ %9, %19 ]
  %25 = phi i32 [ 1, %17 ], [ 0, %21 ], [ 0, %19 ]
  %26 = add nuw i64 %6, 1
  %27 = call i64 @strlen(i8* noundef nonnull %2) #6
  %28 = icmp ugt i64 %27, %6
  br i1 %28, label %5, label %29, !llvm.loop !8

29:                                               ; preds = %23, %11
  call void @llvm.lifetime.end.p0i8(i64 3000, i8* nonnull %2) #5
  ret void
}

; Function Attrs: argmemonly mustprogress nofree nosync nounwind willreturn
declare void @llvm.lifetime.start.p0i8(i64 immarg, i8* nocapture) #1

declare i32 @gets(...) local_unnamed_addr #2

; Function Attrs: argmemonly mustprogress nofree nounwind readonly willreturn
declare i64 @strlen(i8* nocapture) local_unnamed_addr #3

; Function Attrs: nofree nounwind
declare noundef i32 @printf(i8* nocapture noundef readonly, ...) local_unnamed_addr #4

; Function Attrs: argmemonly mustprogress nofree nosync nounwind willreturn
declare void @llvm.lifetime.end.p0i8(i64 immarg, i8* nocapture) #1


!llvm.module.flags = !{!0, !1, !2, !3}
!llvm.ident = !{!4}

!0 = !{i32 1, !"wchar_size", i32 4}
!1 = !{i32 7, !"PIC Level", i32 2}
!2 = !{i32 7, !"PIE Level", i32 2}
!3 = !{i32 7, !"uwtable", i32 1}
!4 = !{!"clang version 13.0.0"}
!5 = !{!6, !6, i64 0}
!6 = !{!"omnipotent char", !7, i64 0}
!7 = !{!"Simple C/C++ TBAA"}
!8 = distinct !{!8, !9}
!9 = !{!"llvm.loop.mustprogress"}
